; Function Attrs: mustprogress uwtable
define void @_ZN7mitsuba10FileStream5flushEv(ptr noundef nonnull align 8 dereferenceable(64) %0) unnamed_addr #0 align 2 personality ptr @__gxx_personality_v0 {
  %2 = alloca %"class.std::__1::basic_string", align 8
  %3 = alloca %"class.std::__1::basic_string", align 8
  %4 = alloca ptr, align 8
  %5 = getelementptr inbounds i8, ptr %0, i64 56
  %6 = load ptr, ptr %5, align 8
  %7 = getelementptr inbounds i8, ptr %6, i64 16
  %8 = tail call noundef nonnull align 8 dereferenceable(8) ptr @_ZNSt3__113basic_ostreamIcNS_11char_traitsIcEEE5flushEv(ptr noundef nonnull align 8 dereferenceable(8) %7)
  %9 = load ptr, ptr %5, align 8
  %10 = load ptr, ptr %9, align 8
  %11 = getelementptr i8, ptr %10, i64 -24
  %12 = load i64, ptr %11, align 8
  %13 = getelementptr inbounds i8, ptr %9, i64 %12
  %14 = getelementptr inbounds i8, ptr %13, i64 32
  %15 = load i32, ptr %14, align 8
  %16 = icmp eq i32 %15, 0
  br i1 %16, label %30, label %17

17:                                               ; preds = %1
  tail call void @_ZNSt3__18ios_base5clearEj(ptr noundef nonnull align 8 dereferenceable(136) %13, i32 noundef 0)
  %18 = load ptr, ptr @_ZN7mitsuba10FileStream7m_classE, align 8
  %19 = getelementptr inbounds i8, ptr %0, i64 24
  call void @_ZNK7mitsuba10filesystem4path6stringEv(ptr dead_on_unwind nonnull writable sret(%"class.std::__1::basic_string") align 8 %3, ptr noundef nonnull align 8 dereferenceable(25) %19)
  %20 = tail call ptr @__errno_location() #22
  %21 = load i32, ptr %20, align 4
  %22 = call ptr @strerror(i32 noundef %21) #19
  store ptr %22, ptr %4, align 8
  invoke void @_ZN10tinyformat6formatIJNSt3__112basic_stringIcNS1_11char_traitsIcEENS1_9allocatorIcEEEEPcEEES7_PKcDpRKT_(ptr dead_on_unwind nonnull writable sret(%"class.std::__1::basic_string") align 8 %2, ptr noundef nonnull @.str.8, ptr noundef nonnull align 8 dereferenceable(24) %3, ptr noundef nonnull align 8 dereferenceable(8) %4)
          to label %23 unwind label %25

23:                                               ; preds = %17
  invoke void @_ZN7mitsuba6detail5ThrowENS_8LogLevelEPKNS_5ClassEPKciRKNSt3__112basic_stringIcNS7_11char_traitsIcEENS7_9allocatorIcEEEE(i32 noundef 400, ptr noundef %18, ptr noundef nonnull @.str, i32 noundef 123, ptr noundef nonnull align 8 dereferenceable(24) %2) #21
          to label %24 unwind label %27

24:                                               ; preds = %23
  unreachable

25:                                               ; preds = %17
  %26 = landingpad { ptr, i32 }
          cleanup
  br label %29

27:                                               ; preds = %23
  %28 = landingpad { ptr, i32 }
          cleanup
  call void @_ZNSt3__112basic_stringIcNS_11char_traitsIcEENS_9allocatorIcEEED1Ev(ptr noundef nonnull align 8 dereferenceable(24) %2) #19
  br label %29

29:                                               ; preds = %27, %25
  %.pn = phi { ptr, i32 } [ %28, %27 ], [ %26, %25 ]
  call void @_ZNSt3__112basic_stringIcNS_11char_traitsIcEENS_9allocatorIcEEED1Ev(ptr noundef nonnull align 8 dereferenceable(24) %3) #19
  resume { ptr, i32 } %.pn

30:                                               ; preds = %1
  ret void
}